target datalayout = "e-m:e-p270:32:32-p271:32:32-p272:64:64-i64:64-i128:128-f80:128-n8:16:32:64-S128"
target triple = "x86_64-unknown-linux-gnu"

%struct.PCIDevice = type { %struct.DeviceState, i8, i8, ptr, ptr, ptr, ptr, ptr, i32, %struct.PCIReqIDCache, [64 x i8], [7 x %struct.PCIIORegion], %struct.AddressSpace, %struct.MemoryRegion, %struct.MemoryRegion, ptr, ptr, [3 x ptr], i8, i8, i32, i8, i32, ptr, ptr, ptr, ptr, ptr, ptr, %struct.MemoryRegion, %struct.MemoryRegion, %struct.MemoryRegion, ptr, i8, i32, i8, %struct.PCIExpressDevice, ptr, ptr, i32, i8, %struct.MemoryRegion, i32, ptr, ptr, ptr, ptr, ptr, i32 }
%struct.DeviceState = type { %struct.Object, ptr, ptr, i8, i8, i64, ptr, i32, i8, ptr, %struct.NamedGPIOListHead, %struct.NamedClockListHead, %struct.BusStateHead, i32, i32, i32, %struct.ResettableState, ptr, %struct.MemReentrancyGuard }
%struct.Object = type { ptr, ptr, ptr, i32, ptr }
%struct.NamedGPIOListHead = type { ptr }
%struct.NamedClockListHead = type { ptr }
%struct.BusStateHead = type { ptr }
%struct.ResettableState = type { i32, i8, i8 }
%struct.MemReentrancyGuard = type { i8 }
%struct.PCIReqIDCache = type { ptr, i32 }
%struct.PCIIORegion = type { i64, i64, i8, ptr, ptr }
%struct.AddressSpace = type { %struct.rcu_head, ptr, ptr, ptr, i32, i32, ptr, %union.anon, %union.anon.0 }
%struct.rcu_head = type { ptr, ptr }
%union.anon = type { %struct.QTailQLink }
%struct.QTailQLink = type { ptr, ptr }
%union.anon.0 = type { %struct.QTailQLink }
%struct.PCIExpressDevice = type { i8, i8, i8, i16, %struct.PCIEAERLog, i16, i16, i16, %struct.PCIESriovPF, %struct.PCIESriovVF }
%struct.PCIEAERLog = type { i16, i16, ptr }
%struct.PCIESriovPF = type { i16, [7 x i8], ptr, ptr }
%struct.PCIESriovVF = type { ptr, i16 }
%struct.MemoryRegion = type { %struct.Object, i8, i8, i8, i8, i8, i8, i8, i8, i8, i8, ptr, ptr, ptr, ptr, ptr, ptr, i32, i128, i64, ptr, i64, i8, i8, i8, i8, i8, ptr, i64, i32, %union.anon.1, %union.anon.2, %union.anon.3, ptr, i32, ptr, ptr, i8 }
%union.anon.1 = type { %struct.QTailQLink }
%union.anon.2 = type { %struct.QTailQLink }
%union.anon.3 = type { %struct.QTailQLink }

@.str.1 = private unnamed_addr constant [22 x i8] c"../qemu/hw/pci/msix.c\00", align 1
@.str.9 = private unnamed_addr constant [67 x i8] c"dev->msix_vector_use_notifier && dev->msix_vector_release_notifier\00", align 1
@__PRETTY_FUNCTION__.msix_unset_vector_notifiers = private unnamed_addr constant [46 x i8] c"void msix_unset_vector_notifiers(PCIDevice *)\00", align 1
@xen_allowed = external global i8, align 1

; Function Attrs: nounwind sspstrong uwtable
define internal i32 @ldl_he_p(ptr noundef %ptr) #0 {
entry:
  %ptr.addr = alloca ptr, align 8
  %r = alloca i32, align 4
  store ptr %ptr, ptr %ptr.addr, align 8
  %0 = load ptr, ptr %ptr.addr, align 8
  call void @llvm.memcpy.p0.p0.i64(ptr align 4 %r, ptr align 1 %0, i64 4, i1 false)
  %1 = load i32, ptr %r, align 4
  ret i32 %1
}

; Function Attrs: nounwind sspstrong uwtable
define internal i32 @ldl_le_p(ptr noundef %ptr) #0 {
entry:
  %ptr.addr = alloca ptr, align 8
  store ptr %ptr, ptr %ptr.addr, align 8
  %0 = load ptr, ptr %ptr.addr, align 8
  %call = call i32 @ldl_he_p(ptr noundef %0)
  ret i32 %call
}

; Function Attrs: nounwind sspstrong uwtable
define internal i32 @pci_get_long(ptr noundef %config) #0 {
entry:
  %config.addr = alloca ptr, align 8
  store ptr %config, ptr %config.addr, align 8
  %0 = load ptr, ptr %config.addr, align 8
  %call = call i32 @ldl_le_p(ptr noundef %0)
  ret i32 %call
}

; Function Attrs: nounwind sspstrong uwtable
define internal zeroext i1 @msix_vector_masked(ptr noundef %dev, i32 noundef %vector, i1 noundef zeroext %fmask) #0 {
entry:
  %retval = alloca i1, align 1
  %dev.addr = alloca ptr, align 8
  %vector.addr = alloca i32, align 4
  %fmask.addr = alloca i8, align 1
  %offset = alloca i32, align 4
  %data = alloca ptr, align 8
  store ptr %dev, ptr %dev.addr, align 8
  store i32 %vector, ptr %vector.addr, align 4
  %frombool = zext i1 %fmask to i8
  store i8 %frombool, ptr %fmask.addr, align 1
  %0 = load i32, ptr %vector.addr, align 4
  %mul = mul i32 %0, 16
  store i32 %mul, ptr %offset, align 4
  %1 = load ptr, ptr %dev.addr, align 8
  %msix_table = getelementptr inbounds %struct.PCIDevice, ptr %1, i32 0, i32 23
  %2 = load ptr, ptr %msix_table, align 8
  %3 = load i32, ptr %offset, align 4
  %add = add i32 %3, 8
  %idxprom = zext i32 %add to i64
  %arrayidx = getelementptr i8, ptr %2, i64 %idxprom
  store ptr %arrayidx, ptr %data, align 8
  %4 = load i8, ptr @xen_allowed, align 1
  %tobool = trunc i8 %4 to i1
  br i1 %tobool, label %land.lhs.true, label %if.end

land.lhs.true:                                    ; preds = %entry
  %5 = load ptr, ptr %data, align 8
  %call = call i32 @pci_get_long(ptr noundef %5)
  %call1 = call i32 @xen_is_pirq_msi(i32 noundef %call)
  %tobool2 = icmp ne i32 %call1, 0
  br i1 %tobool2, label %if.then, label %if.end

if.then:                                          ; preds = %land.lhs.true
  store i1 false, ptr %retval, align 1
  br label %return

if.end:                                           ; preds = %land.lhs.true, %entry
  %6 = load i8, ptr %fmask.addr, align 1
  %tobool3 = trunc i8 %6 to i1
  br i1 %tobool3, label %lor.end, label %lor.rhs

lor.rhs:                                          ; preds = %if.end
  %7 = load ptr, ptr %dev.addr, align 8
  %msix_table4 = getelementptr inbounds %struct.PCIDevice, ptr %7, i32 0, i32 23
  %8 = load ptr, ptr %msix_table4, align 8
  %9 = load i32, ptr %offset, align 4
  %add5 = add i32 %9, 12
  %idxprom6 = zext i32 %add5 to i64
  %arrayidx7 = getelementptr i8, ptr %8, i64 %idxprom6
  %10 = load i8, ptr %arrayidx7, align 1
  %conv = zext i8 %10 to i32
  %and = and i32 %conv, 1
  %tobool8 = icmp ne i32 %and, 0
  br label %lor.end

lor.end:                                          ; preds = %lor.rhs, %if.end
  %11 = phi i1 [ true, %if.end ], [ %tobool8, %lor.rhs ]
  store i1 %11, ptr %retval, align 1
  br label %return

return:                                           ; preds = %lor.end, %if.then
  %12 = load i1, ptr %retval, align 1
  ret i1 %12
}

; Function Attrs: nounwind sspstrong uwtable
define dso_local zeroext i1 @msix_is_masked(ptr noundef %dev, i32 noundef %vector) #0 {
entry:
  %dev.addr = alloca ptr, align 8
  %vector.addr = alloca i32, align 4
  store ptr %dev, ptr %dev.addr, align 8
  store i32 %vector, ptr %vector.addr, align 4
  %0 = load ptr, ptr %dev.addr, align 8
  %1 = load i32, ptr %vector.addr, align 4
  %2 = load ptr, ptr %dev.addr, align 8
  %msix_function_masked = getelementptr inbounds %struct.PCIDevice, ptr %2, i32 0, i32 33
  %3 = load i8, ptr %msix_function_masked, align 8
  %tobool = trunc i8 %3 to i1
  %call = call zeroext i1 @msix_vector_masked(ptr noundef %0, i32 noundef %1, i1 noundef zeroext %tobool)
  ret i1 %call
}

; Function Attrs: nounwind sspstrong uwtable
define internal void @msix_unset_notifier_for_vector(ptr noundef %dev, i32 noundef %vector) #0 {
entry:
  %dev.addr = alloca ptr, align 8
  %vector.addr = alloca i32, align 4
  store ptr %dev, ptr %dev.addr, align 8
  store i32 %vector, ptr %vector.addr, align 4
  %0 = load ptr, ptr %dev.addr, align 8
  %1 = load i32, ptr %vector.addr, align 4
  %call = call zeroext i1 @msix_is_masked(ptr noundef %0, i32 noundef %1)
  br i1 %call, label %if.then, label %if.end

if.then:                                          ; preds = %entry
  br label %return

if.end:                                           ; preds = %entry
  %2 = load ptr, ptr %dev.addr, align 8
  %msix_vector_release_notifier = getelementptr inbounds %struct.PCIDevice, ptr %2, i32 0, i32 45
  %3 = load ptr, ptr %msix_vector_release_notifier, align 8
  %4 = load ptr, ptr %dev.addr, align 8
  %5 = load i32, ptr %vector.addr, align 4
  call void %3(ptr noundef %4, i32 noundef %5)
  br label %return

return:                                           ; preds = %if.end, %if.then
  ret void
}

; Function Attrs: nounwind sspstrong uwtable
define dso_local void @msix_unset_vector_notifiers(ptr noundef %dev) #0 {
entry:
  %dev.addr = alloca ptr, align 8
  %vector = alloca i32, align 4
  store ptr %dev, ptr %dev.addr, align 8
  %0 = load ptr, ptr %dev.addr, align 8
  %msix_vector_use_notifier = getelementptr inbounds %struct.PCIDevice, ptr %0, i32 0, i32 44
  %1 = load ptr, ptr %msix_vector_use_notifier, align 16
  %tobool = icmp ne ptr %1, null
  br i1 %tobool, label %land.lhs.true, label %if.else

land.lhs.true:                                    ; preds = %entry
  %2 = load ptr, ptr %dev.addr, align 8
  %msix_vector_release_notifier = getelementptr inbounds %struct.PCIDevice, ptr %2, i32 0, i32 45
  %3 = load ptr, ptr %msix_vector_release_notifier, align 8
  %tobool1 = icmp ne ptr %3, null
  br i1 %tobool1, label %if.then, label %if.else

if.then:                                          ; preds = %land.lhs.true
  br label %if.end

if.else:                                          ; preds = %land.lhs.true, %entry
  call void @__assert_fail(ptr noundef @.str.9, ptr noundef @.str.1, i32 noundef 660, ptr noundef @__PRETTY_FUNCTION__.msix_unset_vector_notifiers) #8
  unreachable

if.end:                                           ; preds = %if.then
  %4 = load ptr, ptr %dev.addr, align 8
  %config = getelementptr inbounds %struct.PCIDevice, ptr %4, i32 0, i32 3
  %5 = load ptr, ptr %config, align 8
  %6 = load ptr, ptr %dev.addr, align 8
  %msix_cap = getelementptr inbounds %struct.PCIDevice, ptr %6, i32 0, i32 21
  %7 = load i8, ptr %msix_cap, align 16
  %conv = zext i8 %7 to i32
  %add = add i32 %conv, 3
  %idxprom = sext i32 %add to i64
  %arrayidx = getelementptr i8, ptr %5, i64 %idxprom
  %8 = load i8, ptr %arrayidx, align 1
  %conv2 = zext i8 %8 to i32
  %and = and i32 %conv2, 192
  %cmp = icmp eq i32 %and, 128
  br i1 %cmp, label %if.then4, label %if.end7

if.then4:                                         ; preds = %if.end
  store i32 0, ptr %vector, align 4
  br label %for.cond

for.cond:                                         ; preds = %for.inc, %if.then4
  %9 = load i32, ptr %vector, align 4
  %10 = load ptr, ptr %dev.addr, align 8
  %msix_entries_nr = getelementptr inbounds %struct.PCIDevice, ptr %10, i32 0, i32 22
  %11 = load i32, ptr %msix_entries_nr, align 4
  %cmp5 = icmp slt i32 %9, %11
  br i1 %cmp5, label %for.body, label %for.end

for.body:                                         ; preds = %for.cond
  %12 = load ptr, ptr %dev.addr, align 8
  %13 = load i32, ptr %vector, align 4
  call void @msix_unset_notifier_for_vector(ptr noundef %12, i32 noundef %13)
  br label %for.inc

for.inc:                                          ; preds = %for.body
  %14 = load i32, ptr %vector, align 4
  %inc = add i32 %14, 1
  store i32 %inc, ptr %vector, align 4
  br label %for.cond, !llvm.loop !13

for.end:                                          ; preds = %for.cond
  br label %if.end7

if.end7:                                          ; preds = %for.end, %if.end
  %15 = load ptr, ptr %dev.addr, align 8
  %msix_vector_use_notifier8 = getelementptr inbounds %struct.PCIDevice, ptr %15, i32 0, i32 44
  store ptr null, ptr %msix_vector_use_notifier8, align 16
  %16 = load ptr, ptr %dev.addr, align 8
  %msix_vector_release_notifier9 = getelementptr inbounds %struct.PCIDevice, ptr %16, i32 0, i32 45
  store ptr null, ptr %msix_vector_release_notifier9, align 8
  %17 = load ptr, ptr %dev.addr, align 8
  %msix_vector_poll_notifier = getelementptr inbounds %struct.PCIDevice, ptr %17, i32 0, i32 46
  store ptr null, ptr %msix_vector_poll_notifier, align 16
  ret void
}