; Function Attrs: nounwind sspstrong uwtable
define dso_local void @msix_unset_vector_notifiers(ptr noundef %dev) local_unnamed_addr #0 {
entry:
  %msix_vector_use_notifier = getelementptr inbounds nuw i8, ptr %dev, i64 2560
  %0 = load ptr, ptr %msix_vector_use_notifier, align 16
  %tobool.not = icmp eq ptr %0, null
  br i1 %tobool.not, label %if.else, label %land.lhs.true

land.lhs.true:                                    ; preds = %entry
  %msix_vector_release_notifier = getelementptr inbounds nuw i8, ptr %dev, i64 2568
  %1 = load ptr, ptr %msix_vector_release_notifier, align 8
  %tobool1.not = icmp eq ptr %1, null
  br i1 %tobool1.not, label %if.else, label %if.end

if.else:                                          ; preds = %land.lhs.true, %entry
  tail call void @__assert_fail(ptr noundef nonnull @.str.9, ptr noundef nonnull @.str.1, i32 noundef 660, ptr noundef nonnull @__PRETTY_FUNCTION__.msix_unset_vector_notifiers) #15
  unreachable

if.end:                                           ; preds = %land.lhs.true
  %config = getelementptr inbounds nuw i8, ptr %dev, i64 168
  %2 = load ptr, ptr %config, align 8
  %msix_cap = getelementptr inbounds nuw i8, ptr %dev, i64 1264
  %3 = load i8, ptr %msix_cap, align 16
  %conv = zext i8 %3 to i64
  %4 = getelementptr i8, ptr %2, i64 %conv
  %arrayidx = getelementptr i8, ptr %4, i64 3
  %5 = load i8, ptr %arrayidx, align 1
  %cmp = icmp slt i8 %5, -64
  br i1 %cmp, label %for.cond.preheader, label %if.end7

for.cond.preheader:                               ; preds = %if.end
  %msix_entries_nr = getelementptr inbounds nuw i8, ptr %dev, i64 1268
  %6 = load i32, ptr %msix_entries_nr, align 4
  %cmp511 = icmp sgt i32 %6, 0
  br i1 %cmp511, label %for.body.lr.ph, label %if.end7

for.body.lr.ph:                                   ; preds = %for.cond.preheader
  %msix_function_masked.i.i = getelementptr inbounds nuw i8, ptr %dev, i64 2152
  %msix_table.i.i.i = getelementptr inbounds nuw i8, ptr %dev, i64 1272
  br label %for.body

for.body:                                         ; preds = %for.body.lr.ph, %msix_unset_notifier_for_vector.exit
  %indvars.iv = phi i64 [ 0, %for.body.lr.ph ], [ %indvars.iv.next, %msix_unset_notifier_for_vector.exit ]
  %7 = load i8, ptr %msix_function_masked.i.i, align 8
  %tobool.i.i = trunc i8 %7 to i1
  %8 = trunc nuw nsw i64 %indvars.iv to i32
  %mul.i.i.i = shl i32 %8, 4
  %9 = load i8, ptr @xen_allowed, align 1
  %tobool.i.i.i = trunc i8 %9 to i1
  br i1 %tobool.i.i.i, label %land.lhs.true.i.i.i, label %if.end.i.i.i

land.lhs.true.i.i.i:                              ; preds = %for.body
  %10 = load ptr, ptr %msix_table.i.i.i, align 8
  %add.i.i.i = or disjoint i32 %mul.i.i.i, 8
  %idxprom.i.i.i = zext i32 %add.i.i.i to i64
  %arrayidx.i.i.i = getelementptr i8, ptr %10, i64 %idxprom.i.i.i
  %arrayidx.val.i.i.i = load i32, ptr %arrayidx.i.i.i, align 1
  %call1.i.i.i = tail call i32 @xen_is_pirq_msi(i32 noundef %arrayidx.val.i.i.i) #14
  %tobool2.not.i.i.i = icmp ne i32 %call1.i.i.i, 0
  %brmerge.i.i.i = or i1 %tobool2.not.i.i.i, %tobool.i.i
  br i1 %brmerge.i.i.i, label %msix_is_masked.exit.i, label %lor.rhs.i.i.i

if.end.i.i.i:                                     ; preds = %for.body
  br i1 %tobool.i.i, label %msix_unset_notifier_for_vector.exit, label %lor.rhs.i.i.i

lor.rhs.i.i.i:                                    ; preds = %if.end.i.i.i, %land.lhs.true.i.i.i
  %11 = load ptr, ptr %msix_table.i.i.i, align 8
  %add5.i.i.i = or disjoint i32 %mul.i.i.i, 12
  %idxprom6.i.i.i = zext i32 %add5.i.i.i to i64
  %arrayidx7.i.i.i = getelementptr i8, ptr %11, i64 %idxprom6.i.i.i
  %12 = load i8, ptr %arrayidx7.i.i.i, align 1
  %13 = and i8 %12, 1
  %tobool8.i.i.not.i = icmp eq i8 %13, 0
  br i1 %tobool8.i.i.not.i, label %if.end.i, label %msix_unset_notifier_for_vector.exit

msix_is_masked.exit.i:                            ; preds = %land.lhs.true.i.i.i
  br i1 %tobool2.not.i.i.i, label %if.end.i, label %msix_unset_notifier_for_vector.exit

if.end.i:                                         ; preds = %msix_is_masked.exit.i, %lor.rhs.i.i.i
  %14 = load ptr, ptr %msix_vector_release_notifier, align 8
  tail call void %14(ptr noundef nonnull %dev, i32 noundef %8) #14
  br label %msix_unset_notifier_for_vector.exit

msix_unset_notifier_for_vector.exit:              ; preds = %if.end.i.i.i, %lor.rhs.i.i.i, %msix_is_masked.exit.i, %if.end.i
  %indvars.iv.next = add nuw nsw i64 %indvars.iv, 1
  %15 = load i32, ptr %msix_entries_nr, align 4
  %16 = sext i32 %15 to i64
  %cmp5 = icmp slt i64 %indvars.iv.next, %16
  br i1 %cmp5, label %for.body, label %if.end7, !llvm.loop !13

if.end7:                                          ; preds = %msix_unset_notifier_for_vector.exit, %for.cond.preheader, %if.end
  tail call void @llvm.memset.p0.i64(ptr noundef nonnull align 16 dereferenceable(24) %msix_vector_use_notifier, i8 0, i64 24, i1 false)
  ret void
}